; Function Attrs: mustprogress uwtable
define noundef ptr @ulistfmt_openResult_75(ptr nocapture noundef %ec) local_unnamed_addr #1 personality ptr @__gxx_personality_v0 {
entry:
  %0 = load i32, ptr %ec, align 4
  %cmp.i = icmp slt i32 %0, 1
  br i1 %cmp.i, label %if.end, label %return

if.end:                                           ; preds = %entry
  %call1 = tail call noundef ptr @_ZN6icu_757UMemorynwEm(i64 noundef 48) #10
  %new.isnull = icmp eq ptr %call1, null
  br i1 %new.isnull, label %if.then2, label %new.notnull

new.notnull:                                      ; preds = %if.end
  invoke void @_ZN6icu_7518UFormattedListImplC1Ev(ptr noundef nonnull align 8 dereferenceable(48) %call1)
          to label %return unwind label %lpad

if.then2:                                         ; preds = %if.end
  store i32 7, ptr %ec, align 4
  br label %return

lpad:                                             ; preds = %new.notnull
  %1 = landingpad { ptr, i32 }
          cleanup
  tail call void @_ZN6icu_757UMemorydlEPv(ptr noundef nonnull %call1) #10
  resume { ptr, i32 } %1

return:                                           ; preds = %new.notnull, %entry, %if.then2
  %retval.0 = phi ptr [ null, %if.then2 ], [ null, %entry ], [ %call1, %new.notnull ]
  ret ptr %retval.0
}